target datalayout = "e-m:e-p270:32:32-p271:32:32-p272:64:64-i64:64-i128:128-f80:128-n8:16:32:64-S128"
target triple = "x86_64-pc-linux-gnu"

%struct.b2Vec2 = type { float, float }
%struct.b2JointArray = type { ptr, i32, i32 }
%struct.b2JointSimArray = type { ptr, i32, i32 }
%struct.b2BodyId = type { i32, i16, i16 }
%struct.b2MouseJointDef = type { %struct.b2BodyId, %struct.b2BodyId, %struct.b2Vec2, float, float, float, i8, ptr, i32 }
%struct.b2JointId = type { i32, i16, i16 }
%struct.b2World = type { %struct.b2ArenaAllocator, %struct.b2BroadPhase, %struct.b2ConstraintGraph, %struct.b2IdPool, %struct.b2BodyArray, %struct.b2IdPool, %struct.b2SolverSetArray, %struct.b2IdPool, %struct.b2JointArray, %struct.b2IdPool, %struct.b2ContactArray, %struct.b2IdPool, %struct.b2IslandArray, %struct.b2IdPool, %struct.b2IdPool, %struct.b2ShapeArray, %struct.b2ChainShapeArray, %struct.b2SensorArray, %struct.b2TaskContextArray, %struct.b2SensorTaskContextArray, %struct.b2BodyMoveEventArray, %struct.b2SensorBeginTouchEventArray, %struct.b2ContactBeginTouchEventArray, [2 x %struct.b2SensorEndTouchEventArray], [2 x %struct.b2ContactEndTouchEventArray], i32, %struct.b2ContactHitEventArray, %struct.b2BitSet, %struct.b2BitSet, %struct.b2BitSet, i64, i32, %struct.b2Vec2, float, float, float, float, float, float, float, float, ptr, ptr, i16, %struct.b2Profile, ptr, ptr, ptr, ptr, i32, ptr, ptr, ptr, ptr, ptr, float, i32, i32, i16, i8, i8, i8, i8, i8, i8 }
%struct.b2ArenaAllocator = type { ptr, i32, i32, i32, i32, %struct.b2ArenaEntryArray }
%struct.b2ArenaEntryArray = type { ptr, i32, i32 }
%struct.b2BroadPhase = type { [3 x %struct.b2DynamicTree], i32, %struct.b2HashSet, %struct.b2IntArray, ptr, ptr, i32, %struct.b2AtomicInt, %struct.b2HashSet }
%struct.b2DynamicTree = type { ptr, i32, i32, i32, i32, i32, ptr, ptr, ptr, ptr, i32 }
%struct.b2IntArray = type { ptr, i32, i32 }
%struct.b2AtomicInt = type { i32 }
%struct.b2HashSet = type { ptr, i32, i32 }
%struct.b2ConstraintGraph = type { [12 x %struct.b2GraphColor] }
%struct.b2GraphColor = type { %struct.b2BitSet, %struct.b2ContactSimArray, %struct.b2JointSimArray, %union.anon }
%struct.b2ContactSimArray = type { ptr, i32, i32 }
%union.anon = type { ptr }
%struct.b2BodyArray = type { ptr, i32, i32 }
%struct.b2SolverSetArray = type { ptr, i32, i32 }
%struct.b2ContactArray = type { ptr, i32, i32 }
%struct.b2IslandArray = type { ptr, i32, i32 }
%struct.b2IdPool = type { %struct.b2IntArray, i32 }
%struct.b2ShapeArray = type { ptr, i32, i32 }
%struct.b2ChainShapeArray = type { ptr, i32, i32 }
%struct.b2SensorArray = type { ptr, i32, i32 }
%struct.b2TaskContextArray = type { ptr, i32, i32 }
%struct.b2SensorTaskContextArray = type { ptr, i32, i32 }
%struct.b2BodyMoveEventArray = type { ptr, i32, i32 }
%struct.b2SensorBeginTouchEventArray = type { ptr, i32, i32 }
%struct.b2ContactBeginTouchEventArray = type { ptr, i32, i32 }
%struct.b2SensorEndTouchEventArray = type { ptr, i32, i32 }
%struct.b2ContactEndTouchEventArray = type { ptr, i32, i32 }
%struct.b2ContactHitEventArray = type { ptr, i32, i32 }
%struct.b2BitSet = type { ptr, i32, i32 }
%struct.b2Profile = type { float, float, float, float, float, float, float, float, float, float, float, float, float, float, float, float, float, float, float, float, float, float }
%struct.b2Joint = type { ptr, i32, i32, i32, [2 x %struct.b2JointEdge], i32, i32, i32, i32, float, i32, i16, i8, i8 }
%struct.b2JointEdge = type { i32, i32, i32 }
%struct.b2JointSim = type { i32, i32, i32, i32, %struct.b2Vec2, %struct.b2Vec2, float, float, float, float, %union.anon.0 }
%union.anon.0 = type { %struct.b2PrismaticJoint }
%struct.b2PrismaticJoint = type { %struct.b2Vec2, %struct.b2Vec2, float, float, float, float, float, float, float, float, float, float, float, i32, i32, %struct.b2Vec2, %struct.b2Vec2, %struct.b2Vec2, %struct.b2Vec2, float, float, %struct.b2Softness, i8, i8, i8 }
%struct.b2Softness = type { float, float, float }
%struct.b2WorldId = type { i16, i16 }
%struct.b2JointPair = type { ptr, ptr }
%struct.b2Mat22 = type { %struct.b2Vec2, %struct.b2Vec2 }
%struct.b2Transform = type { %struct.b2Vec2, %struct.b2Rot }
%struct.b2Rot = type { float, float }
%struct.b2MouseJoint = type { %struct.b2Vec2, float, float, float, %struct.b2Vec2, float, %struct.b2Softness, %struct.b2Softness, i32, %struct.b2Vec2, %struct.b2Vec2, %struct.b2Mat22 }

; Function Attrs: inlinehint nounwind uwtable
define internal <2 x float> @b2InvTransformPoint(<2 x float> %0, <2 x float> %1, <2 x float> %2) #7 {
  %4 = alloca %struct.b2Vec2, align 4
  %5 = alloca %struct.b2Transform, align 4
  %6 = alloca %struct.b2Vec2, align 4
  %7 = alloca float, align 4
  %8 = alloca float, align 4
  %9 = getelementptr inbounds nuw { <2 x float>, <2 x float> }, ptr %5, i32 0, i32 0
  store <2 x float> %0, ptr %9, align 4
  %10 = getelementptr inbounds nuw { <2 x float>, <2 x float> }, ptr %5, i32 0, i32 1
  store <2 x float> %1, ptr %10, align 4
  store <2 x float> %2, ptr %6, align 4
  call void @llvm.lifetime.start.p0(i64 4, ptr %7) #9
  %11 = getelementptr inbounds nuw %struct.b2Vec2, ptr %6, i32 0, i32 0
  %12 = load float, ptr %11, align 4, !tbaa !41
  %13 = getelementptr inbounds nuw %struct.b2Transform, ptr %5, i32 0, i32 0
  %14 = getelementptr inbounds nuw %struct.b2Vec2, ptr %13, i32 0, i32 0
  %15 = load float, ptr %14, align 4, !tbaa !199
  %16 = fsub float %12, %15
  store float %16, ptr %7, align 4, !tbaa !26
  call void @llvm.lifetime.start.p0(i64 4, ptr %8) #9
  %17 = getelementptr inbounds nuw %struct.b2Vec2, ptr %6, i32 0, i32 1
  %18 = load float, ptr %17, align 4, !tbaa !42
  %19 = getelementptr inbounds nuw %struct.b2Transform, ptr %5, i32 0, i32 0
  %20 = getelementptr inbounds nuw %struct.b2Vec2, ptr %19, i32 0, i32 1
  %21 = load float, ptr %20, align 4, !tbaa !202
  %22 = fsub float %18, %21
  store float %22, ptr %8, align 4, !tbaa !26
  %23 = getelementptr inbounds nuw %struct.b2Vec2, ptr %4, i32 0, i32 0
  %24 = getelementptr inbounds nuw %struct.b2Transform, ptr %5, i32 0, i32 1
  %25 = getelementptr inbounds nuw %struct.b2Rot, ptr %24, i32 0, i32 0
  %26 = load float, ptr %25, align 4, !tbaa !203
  %27 = load float, ptr %7, align 4, !tbaa !26
  %28 = fmul float %26, %27
  %29 = getelementptr inbounds nuw %struct.b2Transform, ptr %5, i32 0, i32 1
  %30 = getelementptr inbounds nuw %struct.b2Rot, ptr %29, i32 0, i32 1
  %31 = load float, ptr %30, align 4, !tbaa !204
  %32 = load float, ptr %8, align 4, !tbaa !26
  %33 = fmul float %31, %32
  %34 = fadd float %28, %33
  store float %34, ptr %23, align 4, !tbaa !41
  %35 = getelementptr inbounds nuw %struct.b2Vec2, ptr %4, i32 0, i32 1
  %36 = getelementptr inbounds nuw %struct.b2Transform, ptr %5, i32 0, i32 1
  %37 = getelementptr inbounds nuw %struct.b2Rot, ptr %36, i32 0, i32 1
  %38 = load float, ptr %37, align 4, !tbaa !204
  %39 = fneg float %38
  %40 = load float, ptr %7, align 4, !tbaa !26
  %41 = fmul float %39, %40
  %42 = getelementptr inbounds nuw %struct.b2Transform, ptr %5, i32 0, i32 1
  %43 = getelementptr inbounds nuw %struct.b2Rot, ptr %42, i32 0, i32 0
  %44 = load float, ptr %43, align 4, !tbaa !203
  %45 = load float, ptr %8, align 4, !tbaa !26
  %46 = fmul float %44, %45
  %47 = fadd float %41, %46
  store float %47, ptr %35, align 4, !tbaa !42
  call void @llvm.lifetime.end.p0(i64 4, ptr %8) #9
  call void @llvm.lifetime.end.p0(i64 4, ptr %7) #9
  %48 = load <2 x float>, ptr %4, align 4
  ret <2 x float> %48
}

; Function Attrs: nounwind uwtable
define i64 @b2CreateMouseJoint(i32 %0, ptr noundef %1) #6 {
  %3 = alloca %struct.b2JointId, align 4
  %4 = alloca %struct.b2WorldId, align 2
  %5 = alloca ptr, align 8
  %6 = alloca ptr, align 8
  %7 = alloca i32, align 4
  %8 = alloca ptr, align 8
  %9 = alloca ptr, align 8
  %10 = alloca %struct.b2Transform, align 4
  %11 = alloca %struct.b2Transform, align 4
  %12 = alloca %struct.b2JointPair, align 8
  %13 = alloca ptr, align 8
  %14 = alloca %struct.b2Vec2, align 4
  %15 = alloca %struct.b2Vec2, align 4
  %16 = alloca %struct.b2MouseJoint, align 4
  store i32 %0, ptr %4, align 2
  store ptr %1, ptr %5, align 8, !tbaa !194
  call void @llvm.lifetime.start.p0(i64 8, ptr %6) #9
  %17 = load i32, ptr %4, align 2
  %18 = call ptr @b2GetWorldFromId(i32 %17)
  store ptr %18, ptr %6, align 8, !tbaa !60
  %19 = load ptr, ptr %6, align 8, !tbaa !60
  %20 = getelementptr inbounds nuw %struct.b2World, ptr %19, i32 0, i32 60
  %21 = load i8, ptr %20, align 1, !tbaa !76, !range !119, !noundef !120
  %22 = trunc i8 %21 to i1
  br i1 %22, label %23, label %27

23:                                               ; preds = %2
  %24 = getelementptr inbounds nuw %struct.b2JointId, ptr %3, i32 0, i32 0
  store i32 0, ptr %24, align 4, !tbaa !62
  %25 = getelementptr inbounds nuw %struct.b2JointId, ptr %3, i32 0, i32 1
  store i16 0, ptr %25, align 4, !tbaa !75
  %26 = getelementptr inbounds nuw %struct.b2JointId, ptr %3, i32 0, i32 2
  store i16 0, ptr %26, align 2, !tbaa !124
  store i32 1, ptr %7, align 4
  br label %130

27:                                               ; preds = %2
  call void @llvm.lifetime.start.p0(i64 8, ptr %8) #9
  %28 = load ptr, ptr %6, align 8, !tbaa !60
  %29 = load ptr, ptr %5, align 8, !tbaa !194
  %30 = getelementptr inbounds nuw %struct.b2MouseJointDef, ptr %29, i32 0, i32 0
  %31 = load i64, ptr %30, align 8
  %32 = call ptr @b2GetBodyFullId(ptr noundef %28, i64 %31)
  store ptr %32, ptr %8, align 8, !tbaa !125
  call void @llvm.lifetime.start.p0(i64 8, ptr %9) #9
  %33 = load ptr, ptr %6, align 8, !tbaa !60
  %34 = load ptr, ptr %5, align 8, !tbaa !194
  %35 = getelementptr inbounds nuw %struct.b2MouseJointDef, ptr %34, i32 0, i32 1
  %36 = load i64, ptr %35, align 8
  %37 = call ptr @b2GetBodyFullId(ptr noundef %33, i64 %36)
  store ptr %37, ptr %9, align 8, !tbaa !125
  call void @llvm.lifetime.start.p0(i64 16, ptr %10) #9
  %38 = load ptr, ptr %6, align 8, !tbaa !60
  %39 = load ptr, ptr %8, align 8, !tbaa !125
  %40 = call { <2 x float>, <2 x float> } @b2GetBodyTransformQuick(ptr noundef %38, ptr noundef %39)
  %41 = getelementptr inbounds nuw { <2 x float>, <2 x float> }, ptr %10, i32 0, i32 0
  %42 = extractvalue { <2 x float>, <2 x float> } %40, 0
  store <2 x float> %42, ptr %41, align 4
  %43 = getelementptr inbounds nuw { <2 x float>, <2 x float> }, ptr %10, i32 0, i32 1
  %44 = extractvalue { <2 x float>, <2 x float> } %40, 1
  store <2 x float> %44, ptr %43, align 4
  call void @llvm.lifetime.start.p0(i64 16, ptr %11) #9
  %45 = load ptr, ptr %6, align 8, !tbaa !60
  %46 = load ptr, ptr %9, align 8, !tbaa !125
  %47 = call { <2 x float>, <2 x float> } @b2GetBodyTransformQuick(ptr noundef %45, ptr noundef %46)
  %48 = getelementptr inbounds nuw { <2 x float>, <2 x float> }, ptr %11, i32 0, i32 0
  %49 = extractvalue { <2 x float>, <2 x float> } %47, 0
  store <2 x float> %49, ptr %48, align 4
  %50 = getelementptr inbounds nuw { <2 x float>, <2 x float> }, ptr %11, i32 0, i32 1
  %51 = extractvalue { <2 x float>, <2 x float> } %47, 1
  store <2 x float> %51, ptr %50, align 4
  call void @llvm.lifetime.start.p0(i64 16, ptr %12) #9
  %52 = load ptr, ptr %6, align 8, !tbaa !60
  %53 = load ptr, ptr %8, align 8, !tbaa !125
  %54 = load ptr, ptr %9, align 8, !tbaa !125
  %55 = load ptr, ptr %5, align 8, !tbaa !194
  %56 = getelementptr inbounds nuw %struct.b2MouseJointDef, ptr %55, i32 0, i32 7
  %57 = load ptr, ptr %56, align 8, !tbaa !196
  %58 = load ptr, ptr %5, align 8, !tbaa !194
  %59 = getelementptr inbounds nuw %struct.b2MouseJointDef, ptr %58, i32 0, i32 6
  %60 = load i8, ptr %59, align 4, !tbaa !197, !range !119, !noundef !120
  %61 = trunc i8 %60 to i1
  %62 = call { ptr, ptr } @b2CreateJoint(ptr noundef %52, ptr noundef %53, ptr noundef %54, ptr noundef %57, float noundef 1.000000e+00, i32 noundef 2, i1 noundef zeroext %61)
  %63 = getelementptr inbounds nuw { ptr, ptr }, ptr %12, i32 0, i32 0
  %64 = extractvalue { ptr, ptr } %62, 0
  store ptr %64, ptr %63, align 8
  %65 = getelementptr inbounds nuw { ptr, ptr }, ptr %12, i32 0, i32 1
  %66 = extractvalue { ptr, ptr } %62, 1
  store ptr %66, ptr %65, align 8
  call void @llvm.lifetime.start.p0(i64 8, ptr %13) #9
  %67 = getelementptr inbounds nuw %struct.b2JointPair, ptr %12, i32 0, i32 1
  %68 = load ptr, ptr %67, align 8, !tbaa !128
  store ptr %68, ptr %13, align 8, !tbaa !121
  %69 = load ptr, ptr %13, align 8, !tbaa !121
  %70 = getelementptr inbounds nuw %struct.b2JointSim, ptr %69, i32 0, i32 3
  store i32 2, ptr %70, align 4, !tbaa !130
  %71 = load ptr, ptr %13, align 8, !tbaa !121
  %72 = getelementptr inbounds nuw %struct.b2JointSim, ptr %71, i32 0, i32 4
  call void @llvm.lifetime.start.p0(i64 8, ptr %14) #9
  %73 = load ptr, ptr %5, align 8, !tbaa !194
  %74 = getelementptr inbounds nuw %struct.b2MouseJointDef, ptr %73, i32 0, i32 2
  %75 = getelementptr inbounds nuw { <2 x float>, <2 x float> }, ptr %10, i32 0, i32 0
  %76 = load <2 x float>, ptr %75, align 4
  %77 = getelementptr inbounds nuw { <2 x float>, <2 x float> }, ptr %10, i32 0, i32 1
  %78 = load <2 x float>, ptr %77, align 4
  %79 = load <2 x float>, ptr %74, align 8
  %80 = call <2 x float> @b2InvTransformPoint(<2 x float> %76, <2 x float> %78, <2 x float> %79)
  store <2 x float> %80, ptr %14, align 4
  call void @llvm.memcpy.p0.p0.i64(ptr align 4 %72, ptr align 4 %14, i64 8, i1 false), !tbaa.struct !43
  call void @llvm.lifetime.end.p0(i64 8, ptr %14) #9
  %81 = load ptr, ptr %13, align 8, !tbaa !121
  %82 = getelementptr inbounds nuw %struct.b2JointSim, ptr %81, i32 0, i32 5
  call void @llvm.lifetime.start.p0(i64 8, ptr %15) #9
  %83 = load ptr, ptr %5, align 8, !tbaa !194
  %84 = getelementptr inbounds nuw %struct.b2MouseJointDef, ptr %83, i32 0, i32 2
  %85 = getelementptr inbounds nuw { <2 x float>, <2 x float> }, ptr %11, i32 0, i32 0
  %86 = load <2 x float>, ptr %85, align 4
  %87 = getelementptr inbounds nuw { <2 x float>, <2 x float> }, ptr %11, i32 0, i32 1
  %88 = load <2 x float>, ptr %87, align 4
  %89 = load <2 x float>, ptr %84, align 8
  %90 = call <2 x float> @b2InvTransformPoint(<2 x float> %86, <2 x float> %88, <2 x float> %89)
  store <2 x float> %90, ptr %15, align 4
  call void @llvm.memcpy.p0.p0.i64(ptr align 4 %82, ptr align 4 %15, i64 8, i1 false), !tbaa.struct !43
  call void @llvm.lifetime.end.p0(i64 8, ptr %15) #9
  call void @llvm.lifetime.start.p0(i64 92, ptr %16) #9
  call void @llvm.memset.p0.i64(ptr align 4 %16, i8 0, i64 92, i1 false)
  %91 = load ptr, ptr %13, align 8, !tbaa !121
  %92 = getelementptr inbounds nuw %struct.b2JointSim, ptr %91, i32 0, i32 10
  call void @llvm.memcpy.p0.p0.i64(ptr align 4 %92, ptr align 4 %16, i64 92, i1 false), !tbaa.struct !198
  %93 = load ptr, ptr %13, align 8, !tbaa !121
  %94 = getelementptr inbounds nuw %struct.b2JointSim, ptr %93, i32 0, i32 10
  %95 = getelementptr inbounds nuw %struct.b2MouseJoint, ptr %94, i32 0, i32 0
  %96 = load ptr, ptr %5, align 8, !tbaa !194
  %97 = getelementptr inbounds nuw %struct.b2MouseJointDef, ptr %96, i32 0, i32 2
  call void @llvm.memcpy.p0.p0.i64(ptr align 4 %95, ptr align 8 %97, i64 8, i1 false), !tbaa.struct !43
  %98 = load ptr, ptr %5, align 8, !tbaa !194
  %99 = getelementptr inbounds nuw %struct.b2MouseJointDef, ptr %98, i32 0, i32 3
  %100 = load float, ptr %99, align 8, !tbaa !34
  %101 = load ptr, ptr %13, align 8, !tbaa !121
  %102 = getelementptr inbounds nuw %struct.b2JointSim, ptr %101, i32 0, i32 10
  %103 = getelementptr inbounds nuw %struct.b2MouseJoint, ptr %102, i32 0, i32 1
  store float %100, ptr %103, align 4, !tbaa !134
  %104 = load ptr, ptr %5, align 8, !tbaa !194
  %105 = getelementptr inbounds nuw %struct.b2MouseJointDef, ptr %104, i32 0, i32 4
  %106 = load float, ptr %105, align 4, !tbaa !36
  %107 = load ptr, ptr %13, align 8, !tbaa !121
  %108 = getelementptr inbounds nuw %struct.b2JointSim, ptr %107, i32 0, i32 10
  %109 = getelementptr inbounds nuw %struct.b2MouseJoint, ptr %108, i32 0, i32 2
  store float %106, ptr %109, align 4, !tbaa !134
  %110 = load ptr, ptr %5, align 8, !tbaa !194
  %111 = getelementptr inbounds nuw %struct.b2MouseJointDef, ptr %110, i32 0, i32 5
  %112 = load float, ptr %111, align 8, !tbaa !37
  %113 = load ptr, ptr %13, align 8, !tbaa !121
  %114 = getelementptr inbounds nuw %struct.b2JointSim, ptr %113, i32 0, i32 10
  %115 = getelementptr inbounds nuw %struct.b2MouseJoint, ptr %114, i32 0, i32 3
  store float %112, ptr %115, align 4, !tbaa !134
  %116 = getelementptr inbounds nuw %struct.b2JointId, ptr %3, i32 0, i32 0
  %117 = load ptr, ptr %13, align 8, !tbaa !121
  %118 = getelementptr inbounds nuw %struct.b2JointSim, ptr %117, i32 0, i32 0
  %119 = load i32, ptr %118, align 4, !tbaa !143
  %120 = add nsw i32 %119, 1
  store i32 %120, ptr %116, align 4, !tbaa !62
  %121 = getelementptr inbounds nuw %struct.b2JointId, ptr %3, i32 0, i32 1
  %122 = load ptr, ptr %6, align 8, !tbaa !60
  %123 = getelementptr inbounds nuw %struct.b2World, ptr %122, i32 0, i32 58
  %124 = load i16, ptr %123, align 4, !tbaa !144
  store i16 %124, ptr %121, align 4, !tbaa !75
  %125 = getelementptr inbounds nuw %struct.b2JointId, ptr %3, i32 0, i32 2
  %126 = getelementptr inbounds nuw %struct.b2JointPair, ptr %12, i32 0, i32 0
  %127 = load ptr, ptr %126, align 8, !tbaa !145
  %128 = getelementptr inbounds nuw %struct.b2Joint, ptr %127, i32 0, i32 11
  %129 = load i16, ptr %128, align 4, !tbaa !146
  store i16 %129, ptr %125, align 2, !tbaa !124
  store i32 1, ptr %7, align 4
  call void @llvm.lifetime.end.p0(i64 92, ptr %16) #9
  call void @llvm.lifetime.end.p0(i64 8, ptr %13) #9
  call void @llvm.lifetime.end.p0(i64 16, ptr %12) #9
  call void @llvm.lifetime.end.p0(i64 16, ptr %11) #9
  call void @llvm.lifetime.end.p0(i64 16, ptr %10) #9
  call void @llvm.lifetime.end.p0(i64 8, ptr %9) #9
  call void @llvm.lifetime.end.p0(i64 8, ptr %8) #9
  br label %130

130:                                              ; preds = %27, %23
  call void @llvm.lifetime.end.p0(i64 8, ptr %6) #9
  %131 = load i64, ptr %3, align 4
  ret i64 %131
}