; Function Attrs: nounwind uwtable
define i64 @b2CreateMouseJoint(i32 %0, ptr noundef readonly captures(none) %1) local_unnamed_addr #8 {
  %3 = tail call ptr @b2GetWorldFromId(i32 %0) #10
  %4 = getelementptr inbounds nuw i8, ptr %3, i64 1783
  %5 = load i8, ptr %4, align 1, !tbaa !60, !range !103, !noundef !104
  %6 = trunc nuw i8 %5 to i1
  br i1 %6, label %79, label %7

7:                                                ; preds = %2
  %8 = load i64, ptr %1, align 8
  %9 = tail call ptr @b2GetBodyFullId(ptr noundef nonnull %3, i64 %8) #10
  %10 = getelementptr inbounds nuw i8, ptr %1, i64 8
  %11 = load i64, ptr %10, align 8
  %12 = tail call ptr @b2GetBodyFullId(ptr noundef nonnull %3, i64 %11) #10
  %13 = tail call { <2 x float>, <2 x float> } @b2GetBodyTransformQuick(ptr noundef nonnull %3, ptr noundef %9) #10
  %14 = extractvalue { <2 x float>, <2 x float> } %13, 0
  %15 = extractvalue { <2 x float>, <2 x float> } %13, 1
  %16 = tail call { <2 x float>, <2 x float> } @b2GetBodyTransformQuick(ptr noundef nonnull %3, ptr noundef %12) #10
  %17 = extractvalue { <2 x float>, <2 x float> } %16, 0
  %18 = extractvalue { <2 x float>, <2 x float> } %16, 1
  %19 = getelementptr inbounds nuw i8, ptr %1, i64 40
  %20 = load ptr, ptr %19, align 8, !tbaa !165
  %21 = getelementptr inbounds nuw i8, ptr %1, i64 36
  %22 = load i8, ptr %21, align 4, !tbaa !166, !range !103, !noundef !104
  %23 = trunc nuw i8 %22 to i1
  %24 = tail call fastcc { ptr, ptr } @b2CreateJoint(ptr noundef nonnull %3, ptr noundef %9, ptr noundef %12, ptr noundef %20, float noundef 1.000000e+00, i32 noundef 2, i1 noundef zeroext %23)
  %25 = extractvalue { ptr, ptr } %24, 0
  %26 = extractvalue { ptr, ptr } %24, 1
  %27 = getelementptr inbounds nuw i8, ptr %26, i64 12
  store i32 2, ptr %27, align 4, !tbaa !107
  %28 = getelementptr inbounds nuw i8, ptr %26, i64 16
  %29 = getelementptr inbounds nuw i8, ptr %1, i64 16
  %30 = load <2 x float>, ptr %29, align 8
  %31 = fsub <2 x float> %30, %14
  %32 = extractelement <2 x float> %31, i64 0
  %33 = fsub <2 x float> %30, %14
  %34 = extractelement <2 x float> %33, i64 1
  %.sroa.3.8.vec.extract.i = extractelement <2 x float> %15, i64 0
  %35 = fmul <2 x float> %15, %31
  %36 = extractelement <2 x float> %35, i64 0
  %.sroa.3.12.vec.extract.i = extractelement <2 x float> %15, i64 1
  %37 = fmul float %.sroa.3.12.vec.extract.i, %34
  %38 = fadd float %36, %37
  %.sroa.09.0.vec.insert.i = insertelement <2 x float> poison, float %38, i64 0
  %39 = fmul float %.sroa.3.8.vec.extract.i, %34
  %40 = fmul float %.sroa.3.12.vec.extract.i, %32
  %41 = fsub float %39, %40
  %.sroa.09.4.vec.insert.i = insertelement <2 x float> %.sroa.09.0.vec.insert.i, float %41, i64 1
  store <2 x float> %.sroa.09.4.vec.insert.i, ptr %28, align 4
  %42 = getelementptr inbounds nuw i8, ptr %26, i64 24
  %43 = load <2 x float>, ptr %29, align 8
  %44 = fsub <2 x float> %43, %17
  %45 = extractelement <2 x float> %44, i64 0
  %46 = fsub <2 x float> %43, %17
  %47 = extractelement <2 x float> %46, i64 1
  %.sroa.3.8.vec.extract.i42 = extractelement <2 x float> %18, i64 0
  %48 = fmul <2 x float> %18, %44
  %49 = extractelement <2 x float> %48, i64 0
  %.sroa.3.12.vec.extract.i43 = extractelement <2 x float> %18, i64 1
  %50 = fmul float %.sroa.3.12.vec.extract.i43, %47
  %51 = fadd float %49, %50
  %.sroa.09.0.vec.insert.i44 = insertelement <2 x float> poison, float %51, i64 0
  %52 = fmul float %.sroa.3.8.vec.extract.i42, %47
  %53 = fmul float %.sroa.3.12.vec.extract.i43, %45
  %54 = fsub float %52, %53
  %.sroa.09.4.vec.insert.i45 = insertelement <2 x float> %.sroa.09.0.vec.insert.i44, float %54, i64 1
  store <2 x float> %.sroa.09.4.vec.insert.i45, ptr %42, align 4
  %55 = getelementptr inbounds nuw i8, ptr %26, i64 48
  tail call void @llvm.memset.p0.i64(ptr noundef nonnull align 4 dereferenceable(92) %55, i8 0, i64 92, i1 false)
  %56 = load i64, ptr %29, align 8
  store i64 %56, ptr %55, align 4
  %57 = getelementptr inbounds nuw i8, ptr %1, i64 24
  %58 = load float, ptr %57, align 8, !tbaa !30
  %59 = getelementptr inbounds nuw i8, ptr %26, i64 56
  store float %58, ptr %59, align 4, !tbaa !109
  %60 = getelementptr inbounds nuw i8, ptr %1, i64 28
  %61 = load float, ptr %60, align 4, !tbaa !32
  %62 = getelementptr inbounds nuw i8, ptr %26, i64 60
  store float %61, ptr %62, align 4, !tbaa !109
  %63 = getelementptr inbounds nuw i8, ptr %1, i64 32
  %64 = load float, ptr %63, align 8, !tbaa !33
  %65 = getelementptr inbounds nuw i8, ptr %26, i64 64
  store float %64, ptr %65, align 4, !tbaa !109
  %66 = load i32, ptr %26, align 4, !tbaa !128
  %67 = add nsw i32 %66, 1
  %68 = getelementptr inbounds nuw i8, ptr %3, i64 1780
  %69 = load i16, ptr %68, align 4, !tbaa !129
  %70 = getelementptr inbounds nuw i8, ptr %25, i64 68
  %71 = load i16, ptr %70, align 4, !tbaa !130
  %72 = zext i16 %71 to i64
  %73 = shl nuw i64 %72, 48
  %74 = zext i16 %69 to i64
  %75 = shl nuw nsw i64 %74, 32
  %76 = zext i32 %67 to i64
  %77 = or disjoint i64 %75, %76
  %78 = or disjoint i64 %77, %73
  br label %79

79:                                               ; preds = %2, %7
  %.sroa.037.0.insert.insert = phi i64 [ %78, %7 ], [ 0, %2 ]
  ret i64 %.sroa.037.0.insert.insert
}